; Function Attrs: nounwind uwtable
define ptr @l___private_Lean_Meta_ArgsPacker_0__Lean_Meta_ArgsPacker_Unary_curryType___lambda__1(ptr noundef %0, ptr noundef %1, ptr noundef readnone captures(none) %2, ptr noundef %3, ptr noundef %4, ptr noundef %5, ptr noundef %6, ptr noundef %7) local_unnamed_addr #1 {
  %9 = tail call ptr @l_Lean_Expr_bindingDomain_x21(ptr noundef %0) #7
  %10 = tail call ptr @lean_array_to_list(ptr noundef %1) #7
  %11 = load ptr, ptr @l_Lean_Meta_ArgsPacker_Unary_unpack___lambda__1___closed__1, align 8, !tbaa !12
  %12 = ptrtoint ptr %9 to i64
  %13 = and i64 %12, 1
  %.not = icmp eq i64 %13, 0
  br i1 %.not, label %14, label %lean_inc.exit

14:                                               ; preds = %8
  %.val.i = load i32, ptr %9, align 4, !tbaa !8
  %15 = icmp sgt i32 %.val.i, 0
  br i1 %15, label %16, label %18, !prof !11

16:                                               ; preds = %14
  %17 = add nuw i32 %.val.i, 1
  store i32 %17, ptr %9, align 4, !tbaa !8
  br label %lean_inc.exit

18:                                               ; preds = %14
  %.not.i = icmp eq i32 %.val.i, 0
  br i1 %.not.i, label %lean_inc.exit, label %19

19:                                               ; preds = %18
  tail call void @lean_inc_ref_cold(ptr noundef nonnull %9) #7
  br label %lean_inc.exit

lean_inc.exit:                                    ; preds = %19, %18, %16, %8
  %20 = tail call ptr @l___private_Lean_Meta_ArgsPacker_0__Lean_Meta_ArgsPacker_Unary_curryType_go(ptr noundef %0, ptr noundef %9, ptr noundef %9, ptr noundef %11, ptr noundef %10, ptr noundef %3, ptr noundef %4, ptr noundef %5, ptr noundef %6, ptr noundef %7)
  ret ptr %20
}